(lp0
(dp1
S'N'
p2
I250
sS'mu'
p3
F0.09786345381526104
sS'beta'
p4
F0.0500000206118813
sS'sig'
p5
cnumpy.core.multiarray
scalar
p6
(cnumpy
dtype
p7
(S'f8'
p8
I0
I1
tp9
Rp10
(I3
S'<'
p11
NNNI-1
I-1
I0
tp12
bS'\x9a\x99\x99\x99\x99\x99\xa9?'
p13
tp14
Rp15
sS'rho'
p16
g6
(g10
S'C\xa5!\xe5\x9e\xe2\xf7?'
p17
tp18
Rp19
sS'alpha'
p20
F2.0
sa(dp21
g2
I250
sg3
F0.10035341365461847
sg4
F0.0500000206118813
sg5
g15
sg16
g6
(g10
S'\x97\xe2\x1bB\x14\r\xf6?'
p22
tp23
Rp24
sg20
F2.0
sa(dp25
g2
I250
sg3
F0.09585542168674699
sg4
F0.0500000206118813
sg5
g15
sg16
g6
(g10
S'\x0fj\xa1\xe6^]\xf4?'
p26
tp27
Rp28
sg20
F2.0
sa(dp29
g2
I250
sg3
F0.09571084337349398
sg4
F0.0500000206118813
sg5
g15
sg16
g6
(g10
S'\xcc\x9c\x02\\\xca\xfc\xf4?'
p30
tp31
Rp32
sg20
F2.0
sa(dp33
g2
I250
sg3
F0.09828112449799196
sg4
F0.0500000206118813
sg5
g15
sg16
g6
(g10
S'V\xce?\xe1\xc5\xd4\xf6?'
p34
tp35
Rp36
sg20
F2.0
sa(dp37
g2
I250
sg3
F0.09601606425702812
sg4
F0.0500000206118813
sg5
g6
(g10
S'\x9a\x99\x99\x99\x99\x99\xb9?'
p38
tp39
Rp40
sg16
g6
(g10
S'\x9b\x14\xdeU\x91\x04\xf4?'
p41
tp42
Rp43
sg20
F2.0
sa(dp44
g2
I250
sg3
F0.09728514056224899
sg4
F0.0500000206118813
sg5
g40
sg16
g6
(g10
S'F\xb8\xf7\xde\x05z\xf4?'
p45
tp46
Rp47
sg20
F2.0
sa(dp48
g2
I250
sg3
F0.09503614457831325
sg4
F0.0500000206118813
sg5
g40
sg16
g6
(g10
S'\x97\xf2\x98\xd6\xab\x1f\xf3?'
p49
tp50
Rp51
sg20
F2.0
sa(dp52
g2
I250
sg3
F0.09648192771084338
sg4
F0.0500000206118813
sg5
g40
sg16
g6
(g10
S'^v\xb8\x92\xde\xe2\xf2?'
p53
tp54
Rp55
sg20
F2.0
sa(dp56
g2
I250
sg3
F0.09876305220883534
sg4
F0.0500000206118813
sg5
g40
sg16
g6
(g10
S'a\x835\x04G\x14\xf4?'
p57
tp58
Rp59
sg20
F2.0
sa(dp60
g2
I250
sg3
F0.09808835341365461
sg4
F0.0500000206118813
sg5
g6
(g10
S'433333\xc3?'
p61
tp62
Rp63
sg16
g6
(g10
S'\xaf\r\x13\xabi\x01\xf2?'
p64
tp65
Rp66
sg20
F2.0
sa(dp67
g2
I250
sg3
F0.09776706827309237
sg4
F0.0500000206118813
sg5
g63
sg16
g6
(g10
S'\xbc\xab\x97W\x14\x96\xf1?'
p68
tp69
Rp70
sg20
F2.0
sa(dp71
g2
I250
sg3
F0.09738152610441766
sg4
F0.0500000206118813
sg5
g63
sg16
g6
(g10
S'c\x08!\xe8V\xcf\xf2?'
p72
tp73
Rp74
sg20
F2.0
sa(dp75
g2
I250
sg3
F0.09858634538152611
sg4
F0.0500000206118813
sg5
g63
sg16
g6
(g10
S'HA\x9e\xf4.t\xf1?'
p76
tp77
Rp78
sg20
F2.0
sa(dp79
g2
I250
sg3
F0.09747791164658634
sg4
F0.0500000206118813
sg5
g63
sg16
g6
(g10
S"\xa9n*'\xbb]\xf1?"
p80
tp81
Rp82
sg20
F2.0
sa(dp83
g2
I250
sg3
F0.09982329317269076
sg4
F0.0500000206118813
sg5
g6
(g10
S'\x9a\x99\x99\x99\x99\x99\xc9?'
p84
tp85
Rp86
sg16
g6
(g10
S'\xdc\n\xd4\xdaC\x0e\xf2?'
p87
tp88
Rp89
sg20
F2.0
sa(dp90
g2
I250
sg3
F0.09633734939759037
sg4
F0.0500000206118813
sg5
g86
sg16
g6
(g10
S'\xf8\xcf\x13\x15\xb3\x1c\xf2?'
p91
tp92
Rp93
sg20
F2.0
sa(dp94
g2
I250
sg3
F0.09895582329317269
sg4
F0.0500000206118813
sg5
g86
sg16
g6
(g10
S'<\x16\xb5n\x9c\xb1\xf0?'
p95
tp96
Rp97
sg20
F2.0
sa(dp98
g2
I250
sg3
F0.0983132530120482
sg4
F0.0500000206118813
sg5
g86
sg16
g6
(g10
S'\xaa\xe0\xc0K\x81a\xf0?'
p99
tp100
Rp101
sg20
F2.0
sa(dp102
g2
I250
sg3
F0.0970281124497992
sg4
F0.0500000206118813
sg5
g86
sg16
g6
(g10
S'R\xeb\x11\x84=\t\xf1?'
p103
tp104
Rp105
sg20
F2.0
sa(dp106
g2
I250
sg3
F0.0991004016064257
sg4
F0.0500000206118813
sg5
g6
(g10
S'\x00\x00\x00\x00\x00\x00\xd0?'
p107
tp108
Rp109
sg16
g6
(g10
S'\xcf(\xbd\x8e\x81\x9d\xef?'
p110
tp111
Rp112
sg20
F2.0
sa(dp113
g2
I250
sg3
F0.09823293172690763
sg4
F0.0500000206118813
sg5
g109
sg16
g6
(g10
S'\xa6\xb0\xe8P\x8a\x16\xf0?'
p114
tp115
Rp116
sg20
F2.0
sa(dp117
g2
I250
sg3
F0.0979277108433735
sg4
F0.0500000206118813
sg5
g109
sg16
g6
(g10
S'\xe1S[\x86\xef\x8d\xee?'
p118
tp119
Rp120
sg20
F2.0
sa(dp121
g2
I250
sg3
F0.09839357429718876
sg4
F0.0500000206118813
sg5
g109
sg16
g6
(g10
S'\xce\xfdO\x91\x1dx\xf1?'
p122
tp123
Rp124
sg20
F2.0
sa(dp125
g2
I250
sg3
F0.09853815261044177
sg4
F0.0500000206118813
sg5
g109
sg16
g6
(g10
S';\x9f\xa8\xd1A\xad\xf0?'
p126
tp127
Rp128
sg20
F2.0
sa(dp129
g2
I250
sg3
F0.09911646586345381
sg4
F0.0500000206118813
sg5
g6
(g10
S'333333\xd3?'
p130
tp131
Rp132
sg16
g6
(g10
S'?\x15\xebp\xe3\x94\xf1?'
p133
tp134
Rp135
sg20
F2.0
sa(dp136
g2
I250
sg3
F0.1005301204819277
sg4
F0.0500000206118813
sg5
g132
sg16
g6
(g10
S'YT\x10<\x8f\xf4\xf1?'
p137
tp138
Rp139
sg20
F2.0
sa(dp140
g2
I250
sg3
F0.09985542168674699
sg4
F0.0500000206118813
sg5
g132
sg16
g6
(g10
S'tS\xce*\x8a\xce\xf0?'
p141
tp142
Rp143
sg20
F2.0
sa(dp144
g2
I250
sg3
F0.09873092369477912
sg4
F0.0500000206118813
sg5
g132
sg16
g6
(g10
S'<\xb8\xa14\x19\x08\xf0?'
p145
tp146
Rp147
sg20
F2.0
sa(dp148
g2
I250
sg3
F0.0968995983935743
sg4
F0.0500000206118813
sg5
g132
sg16
g6
(g10
S'\xdd\xdf\x80"\xec\xa4\xef?'
p149
tp150
Rp151
sg20
F2.0
sa(dp152
g2
I250
sg3
F0.09893975903614458
sg4
F0.0500000206118813
sg5
g6
(g10
S'gfffff\xd6?'
p153
tp154
Rp155
sg16
g6
(g10
S'W\x97=\xadVb\xf0?'
p156
tp157
Rp158
sg20
F2.0
sa(dp159
g2
I250
sg3
F0.0979437751004016
sg4
F0.0500000206118813
sg5
g155
sg16
g6
(g10
S'H\x16\xcc\x04\x0b\xf0\xef?'
p160
tp161
Rp162
sg20
F2.0
sa(dp163
g2
I250
sg3
F0.09914859437751004
sg4
F0.0500000206118813
sg5
g155
sg16
g6
(g10
S'\x1f\x18\x86"\xea5\xf0?'
p164
tp165
Rp166
sg20
F2.0
sa(dp167
g2
I250
sg3
F0.09709236947791165
sg4
F0.0500000206118813
sg5
g155
sg16
g6
(g10
S'\x9b\x89\x19%\x08@\xf0?'
p168
tp169
Rp170
sg20
F2.0
sa(dp171
g2
I250
sg3
F0.10006425702811245
sg4
F0.0500000206118813
sg5
g155
sg16
g6
(g10
S"'\x15\x94$PF\xf0?"
p172
tp173
Rp174
sg20
F2.0
sa(dp175
g2
I250
sg3
F0.10163855421686747
sg4
F0.0500000206118813
sg5
g6
(g10
S'\x9a\x99\x99\x99\x99\x99\xd9?'
p176
tp177
Rp178
sg16
g6
(g10
S'3\x07\x13\xce\xe58\xf0?'
p179
tp180
Rp181
sg20
F2.0
sa(dp182
g2
I250
sg3
F0.1020562248995984
sg4
F0.0500000206118813
sg5
g178
sg16
g6
(g10
S'S\xd6\x12\x08\x9a\xaf\xef?'
p183
tp184
Rp185
sg20
F2.0
sa(dp186
g2
I250
sg3
F0.09991967871485943
sg4
F0.0500000206118813
sg5
g178
sg16
g6
(g10
S'W~\x9bD\x8f_\xf0?'
p187
tp188
Rp189
sg20
F2.0
sa(dp190
g2
I250
sg3
F0.09929317269076306
sg4
F0.0500000206118813
sg5
g178
sg16
g6
(g10
S'\xea\xba\x0eYQ\xe2\xf1?'
p191
tp192
Rp193
sg20
F2.0
sa(dp194
g2
I250
sg3
F0.09993574297188755
sg4
F0.0500000206118813
sg5
g178
sg16
g6
(g10
S'W\xbc\xdd\x95\x18\xa0\xf0?'
p195
tp196
Rp197
sg20
F2.0
sa.