(lp0
(dp1
S'N'
p2
I250
sS'mu'
p3
F0.09628915662650603
sS'beta'
p4
F0.10004560945459162
sS'sig'
p5
cnumpy.core.multiarray
scalar
p6
(cnumpy
dtype
p7
(S'f8'
p8
I0
I1
tp9
Rp10
(I3
S'<'
p11
NNNI-1
I-1
I0
tp12
bS'\x9a\x99\x99\x99\x99\x99\xa9?'
p13
tp14
Rp15
sS'rho'
p16
g6
(g10
S'\x1e-\xe6\x1a\xaab\xfd?'
p17
tp18
Rp19
sS'alpha'
p20
F1.0
sa(dp21
g2
I250
sg3
F0.09657831325301205
sg4
F0.10004560945459162
sg5
g15
sg16
g6
(g10
S'5\xbd[\x07\\\x0b\xfd?'
p22
tp23
Rp24
sg20
F1.0
sa(dp25
g2
I250
sg3
F0.09821686746987952
sg4
F0.10004560945459162
sg5
g15
sg16
g6
(g10
S'\xeer\xa0.(\xa4\xfe?'
p26
tp27
Rp28
sg20
F1.0
sa(dp29
g2
I250
sg3
F0.10061044176706828
sg4
F0.10004560945459162
sg5
g15
sg16
g6
(g10
S'\x02<7z`D\xfe?'
p30
tp31
Rp32
sg20
F1.0
sa(dp33
g2
I250
sg3
F0.09873092369477912
sg4
F0.10004560945459162
sg5
g15
sg16
g6
(g10
S'\x8d\xd0"m/*\xfe?'
p34
tp35
Rp36
sg20
F1.0
sa(dp37
g2
I250
sg3
F0.09476305220883534
sg4
F0.10004560945459162
sg5
g6
(g10
S'\x9a\x99\x99\x99\x99\x99\xb9?'
p38
tp39
Rp40
sg16
g6
(g10
S'1\xf7\x13\x1d/T\xf8?'
p41
tp42
Rp43
sg20
F1.0
sa(dp44
g2
I250
sg3
F0.09461847389558233
sg4
F0.10004560945459162
sg5
g40
sg16
g6
(g10
S'\xb2\xf3Q~\xd0\x02\xfa?'
p45
tp46
Rp47
sg20
F1.0
sa(dp48
g2
I250
sg3
F0.09588755020080321
sg4
F0.10004560945459162
sg5
g40
sg16
g6
(g10
S'\xf3>\xf2\x1eI\x9b\xf9?'
p49
tp50
Rp51
sg20
F1.0
sa(dp52
g2
I250
sg3
F0.0952128514056225
sg4
F0.10004560945459162
sg5
g40
sg16
g6
(g10
S'\x01\xe9\x1d\xa7A\x10\xf9?'
p53
tp54
Rp55
sg20
F1.0
sa(dp56
g2
I250
sg3
F0.09646586345381526
sg4
F0.10004560945459162
sg5
g40
sg16
g6
(g10
S'\xcd\x1a\xee\xfc0/\xfa?'
p57
tp58
Rp59
sg20
F1.0
sa(dp60
g2
I250
sg3
F0.09378313253012048
sg4
F0.10004560945459162
sg5
g6
(g10
S'433333\xc3?'
p61
tp62
Rp63
sg16
g6
(g10
S'\xcfg\xc6~\xbb\xba\xf7?'
p64
tp65
Rp66
sg20
F1.0
sa(dp67
g2
I250
sg3
F0.0936867469879518
sg4
F0.10004560945459162
sg5
g63
sg16
g6
(g10
S'\x9e\xdf\xe4\x88hP\xf6?'
p68
tp69
Rp70
sg20
F1.0
sa(dp71
g2
I250
sg3
F0.09579116465863453
sg4
F0.10004560945459162
sg5
g63
sg16
g6
(g10
S'\xb2\xa7EQ\xe2\x9f\xf5?'
p72
tp73
Rp74
sg20
F1.0
sa(dp75
g2
I250
sg3
F0.0942008032128514
sg4
F0.10004560945459162
sg5
g63
sg16
g6
(g10
S"A%'\x82\xcd\xda\xf4?"
p76
tp77
Rp78
sg20
F1.0
sa(dp79
g2
I250
sg3
F0.09550200803212851
sg4
F0.10004560945459162
sg5
g63
sg16
g6
(g10
S'\xeci\xad\xf5t\\\xf5?'
p80
tp81
Rp82
sg20
F1.0
sa(dp83
g2
I250
sg3
F0.09391164658634538
sg4
F0.10004560945459162
sg5
g6
(g10
S'\x9a\x99\x99\x99\x99\x99\xc9?'
p84
tp85
Rp86
sg16
g6
(g10
S'Fm\xefL\x0b\xc0\xf4?'
p87
tp88
Rp89
sg20
F1.0
sa(dp90
g2
I250
sg3
F0.09357429718875503
sg4
F0.10004560945459162
sg5
g86
sg16
g6
(g10
S'0X\xe4[\xd4\xb9\xf3?'
p91
tp92
Rp93
sg20
F1.0
sa(dp94
g2
I250
sg3
F0.09534136546184739
sg4
F0.10004560945459162
sg5
g86
sg16
g6
(g10
S'\x8e\xdd\x1d\x13\xf2Q\xf5?'
p95
tp96
Rp97
sg20
F1.0
sa(dp98
g2
I250
sg3
F0.09619277108433735
sg4
F0.10004560945459162
sg5
g86
sg16
g6
(g10
S'\xdd\xd0\xc1\xa3P\xd5\xf1?'
p99
tp100
Rp101
sg20
F1.0
sa(dp102
g2
I250
sg3
F0.09661044176706828
sg4
F0.10004560945459162
sg5
g86
sg16
g6
(g10
S'@`\xcb\x12k\x81\xf2?'
p103
tp104
Rp105
sg20
F1.0
sa(dp106
g2
I250
sg3
F0.09662650602409639
sg4
F0.10004560945459162
sg5
g6
(g10
S'\x00\x00\x00\x00\x00\x00\xd0?'
p107
tp108
Rp109
sg16
g6
(g10
S'\x01\xb8\xb9\xe68\xb8\xf2?'
p110
tp111
Rp112
sg20
F1.0
sa(dp113
g2
I250
sg3
F0.09775100401606426
sg4
F0.10004560945459162
sg5
g109
sg16
g6
(g10
S'}\xcc#\xf6\xd5\r\xf1?'
p114
tp115
Rp116
sg20
F1.0
sa(dp117
g2
I250
sg3
F0.09463453815261044
sg4
F0.10004560945459162
sg5
g109
sg16
g6
(g10
S'\x95\xe9\x9a3\x90\xbc\xf1?'
p118
tp119
Rp120
sg20
F1.0
sa(dp121
g2
I250
sg3
F0.09519678714859438
sg4
F0.10004560945459162
sg5
g109
sg16
g6
(g10
S'\xfa\xd0\xd6A\x16\x87\xf1?'
p122
tp123
Rp124
sg20
F1.0
sa(dp125
g2
I250
sg3
F0.09530923694779117
sg4
F0.10004560945459162
sg5
g109
sg16
g6
(g10
S'\x17\xc4j\t\xc9r\xf2?'
p126
tp127
Rp128
sg20
F1.0
sa(dp129
g2
I250
sg3
F0.09706024096385542
sg4
F0.10004560945459162
sg5
g6
(g10
S'333333\xd3?'
p130
tp131
Rp132
sg16
g6
(g10
S'j\xbc\xcfKU\xd3\xf2?'
p133
tp134
Rp135
sg20
F1.0
sa(dp136
g2
I250
sg3
F0.0963855421686747
sg4
F0.10004560945459162
sg5
g132
sg16
g6
(g10
S'\xb5\x81N\x1b\xe8\xb4\xf1?'
p137
tp138
Rp139
sg20
F1.0
sa(dp140
g2
I250
sg3
F0.09759036144578313
sg4
F0.10004560945459162
sg5
g132
sg16
g6
(g10
S';\xae\xd5\xc2\xc5Z\xf0?'
p141
tp142
Rp143
sg20
F1.0
sa(dp144
g2
I250
sg3
F0.09596787148594378
sg4
F0.10004560945459162
sg5
g132
sg16
g6
(g10
S'>\xaa\xe3\x18\xc8/\xf0?'
p145
tp146
Rp147
sg20
F1.0
sa(dp148
g2
I250
sg3
F0.09739759036144578
sg4
F0.10004560945459162
sg5
g132
sg16
g6
(g10
S'\xab{\xa5\xf4\x9dO\xf0?'
p149
tp150
Rp151
sg20
F1.0
sa(dp152
g2
I250
sg3
F0.09653012048192772
sg4
F0.10004560945459162
sg5
g6
(g10
S'gfffff\xd6?'
p153
tp154
Rp155
sg16
g6
(g10
S'\xc1\x10\x97\xf1\x1b\x1a\xf1?'
p156
tp157
Rp158
sg20
F1.0
sa(dp159
g2
I250
sg3
F0.09752610441767068
sg4
F0.10004560945459162
sg5
g155
sg16
g6
(g10
S'aV\xb4\x9c$\xc1\xf0?'
p160
tp161
Rp162
sg20
F1.0
sa(dp163
g2
I250
sg3
F0.09839357429718876
sg4
F0.10004560945459162
sg5
g155
sg16
g6
(g10
S'\xfd\x93\xc7\xbe\x85j\xf1?'
p164
tp165
Rp166
sg20
F1.0
sa(dp167
g2
I250
sg3
F0.09797590361445783
sg4
F0.10004560945459162
sg5
g155
sg16
g6
(g10
S'\x86\xda\xc8P\x14\xbd\xee?'
p168
tp169
Rp170
sg20
F1.0
sa(dp171
g2
I250
sg3
F0.09836144578313254
sg4
F0.10004560945459162
sg5
g155
sg16
g6
(g10
S'\xa6G\x1a\xc6\x99x\xf0?'
p172
tp173
Rp174
sg20
F1.0
sa(dp175
g2
I250
sg3
F0.09755823293172691
sg4
F0.10004560945459162
sg5
g6
(g10
S'\x9a\x99\x99\x99\x99\x99\xd9?'
p176
tp177
Rp178
sg16
g6
(g10
S'@2\xb81\xa0\xf5\xf0?'
p179
tp180
Rp181
sg20
F1.0
sa(dp182
g2
I250
sg3
F0.09918072289156626
sg4
F0.10004560945459162
sg5
g178
sg16
g6
(g10
S'\xeer\xdcw\x08$\xf1?'
p183
tp184
Rp185
sg20
F1.0
sa(dp186
g2
I250
sg3
F0.09812048192771085
sg4
F0.10004560945459162
sg5
g178
sg16
g6
(g10
S'\xfd"\x14}H\xb7\xef?'
p187
tp188
Rp189
sg20
F1.0
sa(dp190
g2
I250
sg3
F0.09937349397590362
sg4
F0.10004560945459162
sg5
g178
sg16
g6
(g10
S'\x03\x1d\xad\xcbd\xd0\xf0?'
p191
tp192
Rp193
sg20
F1.0
sa(dp194
g2
I250
sg3
F0.09857028112449799
sg4
F0.10004560945459162
sg5
g178
sg16
g6
(g10
S'\xaa\xd8\x1e\x1b\x8dZ\xf1?'
p195
tp196
Rp197
sg20
F1.0
sa.